; Function Attrs: mustprogress nounwind uwtable
define void @_ZN3zmq12ws_encoder_tD2Ev(ptr noundef nonnull align 8 dereferenceable(168) %this) unnamed_addr #2 align 2 personality ptr @__gxx_personality_v0 {
entry:
  %_masked_msg = getelementptr inbounds i8, ptr %this, i64 96
  %call = invoke noundef i32 @_ZN3zmq5msg_t5closeEv(ptr noundef nonnull align 8 dereferenceable(64) %_masked_msg)
          to label %invoke.cont unwind label %terminate.lpad

invoke.cont:                                      ; preds = %entry
  store ptr getelementptr inbounds ({ [6 x ptr] }, ptr @_ZTVN3zmq14encoder_base_tINS_12ws_encoder_tEEE, i64 0, i32 0, i64 2), ptr %this, align 8
  %_buf.i = getelementptr inbounds i8, ptr %this, i64 56
  %0 = load ptr, ptr %_buf.i, align 8
  tail call void @free(ptr noundef %0) #15
  ret void

terminate.lpad:                                   ; preds = %entry
  %1 = landingpad { ptr, i32 }
          catch ptr null
  %2 = extractvalue { ptr, i32 } %1, 0
  tail call void @__clang_call_terminate(ptr %2) #16
  unreachable
}